target datalayout = "e-m:e-p270:32:32-p271:32:32-p272:64:64-i64:64-i128:128-f80:128-n8:16:32:64-S128"
target triple = "x86_64-unknown-linux-gnu"

%class.b3Vector3 = type { %union.anon }
%union.anon = type { [4 x float] }
%class.b3PgsJacobiSolver = type { ptr, %class.b3AlignedObjectArray, %class.b3AlignedObjectArray.0, %class.b3AlignedObjectArray.0, %class.b3AlignedObjectArray.0, %class.b3AlignedObjectArray.0, %class.b3AlignedObjectArray.4, %class.b3AlignedObjectArray.4, %class.b3AlignedObjectArray.4, %class.b3AlignedObjectArray.8, %class.b3AlignedObjectArray.4, %class.b3AlignedObjectArray.4, %class.b3AlignedObjectArray.12, %class.b3AlignedObjectArray.12, i8, i32, i32, i64 }
%class.b3AlignedObjectArray = type <{ %class.b3AlignedAllocator, [3 x i8], i32, i32, [4 x i8], ptr, i8, [7 x i8] }>
%class.b3AlignedAllocator = type { i8 }
%class.b3AlignedObjectArray.0 = type <{ %class.b3AlignedAllocator.1, [3 x i8], i32, i32, [4 x i8], ptr, i8, [7 x i8] }>
%class.b3AlignedAllocator.1 = type { i8 }
%class.b3AlignedObjectArray.8 = type <{ %class.b3AlignedAllocator.9, [3 x i8], i32, i32, [4 x i8], ptr, i8, [7 x i8] }>
%class.b3AlignedAllocator.9 = type { i8 }
%class.b3AlignedObjectArray.4 = type <{ %class.b3AlignedAllocator.5, [3 x i8], i32, i32, [4 x i8], ptr, i8, [7 x i8] }>
%class.b3AlignedAllocator.5 = type { i8 }
%class.b3AlignedObjectArray.12 = type <{ %class.b3AlignedAllocator.13, [3 x i8], i32, i32, [4 x i8], ptr, i8, [7 x i8] }>
%class.b3AlignedAllocator.13 = type { i8 }
%struct.b3SolverConstraint = type { %class.b3Vector3, %class.b3Vector3, %class.b3Vector3, %class.b3Vector3, %class.b3Vector3, float, float, i32, i32, float, float, float, float, float, float, float, %union.anon.17, i32, i32, i32, i32, [8 x i8] }
%union.anon.17 = type { ptr }

; Function Attrs: mustprogress nounwind uwtable
define linkonce_odr dso_local noundef i32 @_ZN20b3AlignedObjectArrayI18b3SolverConstraintE9allocSizeEi(ptr noundef nonnull align 8 dereferenceable(25) %this, i32 noundef %size) #1 comdat align 2 {
entry:
  %this.addr = alloca ptr, align 8
  %size.addr = alloca i32, align 4
  store ptr %this, ptr %this.addr, align 8
  store i32 %size, ptr %size.addr, align 4
  %0 = load i32, ptr %size.addr, align 4
  %tobool = icmp ne i32 %0, 0
  br i1 %tobool, label %cond.true, label %cond.false

cond.true:                                        ; preds = %entry
  %1 = load i32, ptr %size.addr, align 4
  %mul = mul nsw i32 %1, 2
  br label %cond.end

cond.false:                                       ; preds = %entry
  br label %cond.end

cond.end:                                         ; preds = %cond.false, %cond.true
  %cond = phi i32 [ %mul, %cond.true ], [ 1, %cond.false ]
  ret i32 %cond
}

; Function Attrs: mustprogress nounwind uwtable
define linkonce_odr dso_local noundef i32 @_ZNK20b3AlignedObjectArrayI18b3SolverConstraintE8capacityEv(ptr noundef nonnull align 8 dereferenceable(25) %this) #1 comdat align 2 {
entry:
  %this.addr = alloca ptr, align 8
  store ptr %this, ptr %this.addr, align 8
  %this1 = load ptr, ptr %this.addr, align 8
  %m_capacity = getelementptr inbounds %class.b3AlignedObjectArray.0, ptr %this1, i32 0, i32 3
  %0 = load i32, ptr %m_capacity, align 8
  ret i32 %0
}

; Function Attrs: mustprogress nounwind uwtable
define linkonce_odr dso_local noundef i32 @_ZNK20b3AlignedObjectArrayI18b3SolverConstraintE4sizeEv(ptr noundef nonnull align 8 dereferenceable(25) %this) #1 comdat align 2 {
entry:
  %this.addr = alloca ptr, align 8
  store ptr %this, ptr %this.addr, align 8
  %this1 = load ptr, ptr %this.addr, align 8
  %m_size = getelementptr inbounds %class.b3AlignedObjectArray.0, ptr %this1, i32 0, i32 2
  %0 = load i32, ptr %m_size, align 4
  ret i32 %0
}

; Function Attrs: mustprogress uwtable
define linkonce_odr dso_local noundef nonnull align 16 dereferenceable(160) ptr @_ZN20b3AlignedObjectArrayI18b3SolverConstraintE21expandNonInitializingEv(ptr noundef nonnull align 8 dereferenceable(25) %this) #3 comdat align 2 {
entry:
  %this.addr = alloca ptr, align 8
  %sz = alloca i32, align 4
  store ptr %this, ptr %this.addr, align 8
  %this1 = load ptr, ptr %this.addr, align 8
  %call = call noundef i32 @_ZNK20b3AlignedObjectArrayI18b3SolverConstraintE4sizeEv(ptr noundef nonnull align 8 dereferenceable(25) %this1)
  store i32 %call, ptr %sz, align 4
  %0 = load i32, ptr %sz, align 4
  %call2 = call noundef i32 @_ZNK20b3AlignedObjectArrayI18b3SolverConstraintE8capacityEv(ptr noundef nonnull align 8 dereferenceable(25) %this1)
  %cmp = icmp eq i32 %0, %call2
  br i1 %cmp, label %if.then, label %if.end

if.then:                                          ; preds = %entry
  %call3 = call noundef i32 @_ZNK20b3AlignedObjectArrayI18b3SolverConstraintE4sizeEv(ptr noundef nonnull align 8 dereferenceable(25) %this1)
  %call4 = call noundef i32 @_ZN20b3AlignedObjectArrayI18b3SolverConstraintE9allocSizeEi(ptr noundef nonnull align 8 dereferenceable(25) %this1, i32 noundef %call3)
  call void @_ZN20b3AlignedObjectArrayI18b3SolverConstraintE7reserveEi(ptr noundef nonnull align 8 dereferenceable(25) %this1, i32 noundef %call4)
  br label %if.end

if.end:                                           ; preds = %if.then, %entry
  %m_size = getelementptr inbounds %class.b3AlignedObjectArray.0, ptr %this1, i32 0, i32 2
  %1 = load i32, ptr %m_size, align 4
  %inc = add nsw i32 %1, 1
  store i32 %inc, ptr %m_size, align 4
  %m_data = getelementptr inbounds %class.b3AlignedObjectArray.0, ptr %this1, i32 0, i32 5
  %2 = load ptr, ptr %m_data, align 8
  %3 = load i32, ptr %sz, align 4
  %idxprom = sext i32 %3 to i64
  %arrayidx = getelementptr inbounds %struct.b3SolverConstraint, ptr %2, i64 %idxprom
  ret ptr %arrayidx
}

; Function Attrs: mustprogress uwtable
define dso_local noundef nonnull align 16 dereferenceable(160) ptr @_ZN17b3PgsJacobiSolver28addRollingFrictionConstraintEP15b3RigidBodyDataP13b3InertiaDataRK9b3Vector3iiiR14b3ContactPointS6_S6_S1_S1_fff(ptr noundef nonnull align 8 dereferenceable(448) %this, ptr noundef %bodies, ptr noundef %inertias, ptr noundef nonnull align 16 dereferenceable(16) %normalAxis, i32 noundef %solverBodyIdA, i32 noundef %solverBodyIdB, i32 noundef %frictionIndex, ptr noundef nonnull align 16 dereferenceable(128) %cp, ptr noundef nonnull align 16 dereferenceable(16) %rel_pos1, ptr noundef nonnull align 16 dereferenceable(16) %rel_pos2, ptr noundef %colObj0, ptr noundef %colObj1, float noundef %relaxation, float noundef %desiredVelocity, float noundef %cfmSlip) #3 align 2 {
entry:
  %this.addr = alloca ptr, align 8
  %bodies.addr = alloca ptr, align 8
  %inertias.addr = alloca ptr, align 8
  %normalAxis.addr = alloca ptr, align 8
  %solverBodyIdA.addr = alloca i32, align 4
  %solverBodyIdB.addr = alloca i32, align 4
  %frictionIndex.addr = alloca i32, align 4
  %cp.addr = alloca ptr, align 8
  %rel_pos1.addr = alloca ptr, align 8
  %rel_pos2.addr = alloca ptr, align 8
  %colObj0.addr = alloca ptr, align 8
  %colObj1.addr = alloca ptr, align 8
  %relaxation.addr = alloca float, align 4
  %desiredVelocity.addr = alloca float, align 4
  %cfmSlip.addr = alloca float, align 4
  %solverConstraint = alloca ptr, align 8
  store ptr %this, ptr %this.addr, align 8
  store ptr %bodies, ptr %bodies.addr, align 8
  store ptr %inertias, ptr %inertias.addr, align 8
  store ptr %normalAxis, ptr %normalAxis.addr, align 8
  store i32 %solverBodyIdA, ptr %solverBodyIdA.addr, align 4
  store i32 %solverBodyIdB, ptr %solverBodyIdB.addr, align 4
  store i32 %frictionIndex, ptr %frictionIndex.addr, align 4
  store ptr %cp, ptr %cp.addr, align 8
  store ptr %rel_pos1, ptr %rel_pos1.addr, align 8
  store ptr %rel_pos2, ptr %rel_pos2.addr, align 8
  store ptr %colObj0, ptr %colObj0.addr, align 8
  store ptr %colObj1, ptr %colObj1.addr, align 8
  store float %relaxation, ptr %relaxation.addr, align 4
  store float %desiredVelocity, ptr %desiredVelocity.addr, align 4
  store float %cfmSlip, ptr %cfmSlip.addr, align 4
  %this1 = load ptr, ptr %this.addr, align 8
  %m_tmpSolverContactRollingFrictionConstraintPool = getelementptr inbounds %class.b3PgsJacobiSolver, ptr %this1, i32 0, i32 5
  %call = call noundef nonnull align 16 dereferenceable(160) ptr @_ZN20b3AlignedObjectArrayI18b3SolverConstraintE21expandNonInitializingEv(ptr noundef nonnull align 8 dereferenceable(25) %m_tmpSolverContactRollingFrictionConstraintPool)
  store ptr %call, ptr %solverConstraint, align 8
  %0 = load i32, ptr %frictionIndex.addr, align 4
  %1 = load ptr, ptr %solverConstraint, align 8
  %m_frictionIndex = getelementptr inbounds %struct.b3SolverConstraint, ptr %1, i32 0, i32 18
  store i32 %0, ptr %m_frictionIndex, align 4
  %2 = load ptr, ptr %bodies.addr, align 8
  %3 = load ptr, ptr %inertias.addr, align 8
  %4 = load ptr, ptr %solverConstraint, align 8
  %5 = load ptr, ptr %normalAxis.addr, align 8
  %6 = load i32, ptr %solverBodyIdA.addr, align 4
  %7 = load i32, ptr %solverBodyIdB.addr, align 4
  %8 = load ptr, ptr %cp.addr, align 8
  %9 = load ptr, ptr %rel_pos1.addr, align 8
  %10 = load ptr, ptr %rel_pos2.addr, align 8
  %11 = load ptr, ptr %colObj0.addr, align 8
  %12 = load ptr, ptr %colObj1.addr, align 8
  %13 = load float, ptr %relaxation.addr, align 4
  %14 = load float, ptr %desiredVelocity.addr, align 4
  %15 = load float, ptr %cfmSlip.addr, align 4
  call void @_ZN17b3PgsJacobiSolver30setupRollingFrictionConstraintEP15b3RigidBodyDataP13b3InertiaDataR18b3SolverConstraintRK9b3Vector3iiR14b3ContactPointS8_S8_S1_S1_fff(ptr noundef nonnull align 8 dereferenceable(448) %this1, ptr noundef %2, ptr noundef %3, ptr noundef nonnull align 16 dereferenceable(160) %4, ptr noundef nonnull align 16 dereferenceable(16) %5, i32 noundef %6, i32 noundef %7, ptr noundef nonnull align 16 dereferenceable(128) %8, ptr noundef nonnull align 16 dereferenceable(16) %9, ptr noundef nonnull align 16 dereferenceable(16) %10, ptr noundef %11, ptr noundef %12, float noundef %13, float noundef %14, float noundef %15)
  %16 = load ptr, ptr %solverConstraint, align 8
  ret ptr %16
}