; Function Attrs: mustprogress uwtable
define dso_local noundef nonnull align 16 dereferenceable(160) ptr @_ZN17b3PgsJacobiSolver28addRollingFrictionConstraintEP15b3RigidBodyDataP13b3InertiaDataRK9b3Vector3iiiR14b3ContactPointS6_S6_S1_S1_fff(ptr noundef nonnull align 8 dereferenceable(448) %this, ptr noundef %bodies, ptr nocapture noundef readonly %inertias, ptr nocapture noundef nonnull readonly align 16 dereferenceable(16) %normalAxis, i32 noundef %solverBodyIdA, i32 noundef %solverBodyIdB, i32 noundef %frictionIndex, ptr nocapture noundef nonnull readonly align 16 dereferenceable(128) %cp, ptr nocapture noundef nonnull readnone align 16 dereferenceable(16) %rel_pos1, ptr nocapture noundef nonnull readnone align 16 dereferenceable(16) %rel_pos2, ptr nocapture noundef readnone %colObj0, ptr nocapture noundef readnone %colObj1, float noundef %relaxation, float noundef %desiredVelocity, float noundef %cfmSlip) local_unnamed_addr #5 align 2 {
entry:
  %m_size.i.i = getelementptr inbounds i8, ptr %this, i64 140
  %0 = load i32, ptr %m_size.i.i, align 4
  %m_capacity.i.i = getelementptr inbounds i8, ptr %this, i64 144
  %1 = load i32, ptr %m_capacity.i.i, align 8
  %cmp.i = icmp eq i32 %0, %1
  br i1 %cmp.i, label %if.then.i, label %_ZN20b3AlignedObjectArrayI18b3SolverConstraintE21expandNonInitializingEv.exit

if.then.i:                                        ; preds = %entry
  %m_tmpSolverContactRollingFrictionConstraintPool = getelementptr inbounds i8, ptr %this, i64 136
  %tobool.not.i.i = icmp eq i32 %0, 0
  %mul.i.i = shl nsw i32 %0, 1
  %cond.i.i = select i1 %tobool.not.i.i, i32 1, i32 %mul.i.i
  tail call void @_ZN20b3AlignedObjectArrayI18b3SolverConstraintE7reserveEi(ptr noundef nonnull align 8 dereferenceable(25) %m_tmpSolverContactRollingFrictionConstraintPool, i32 noundef %cond.i.i)
  %.pre.i = load i32, ptr %m_size.i.i, align 4
  br label %_ZN20b3AlignedObjectArrayI18b3SolverConstraintE21expandNonInitializingEv.exit

_ZN20b3AlignedObjectArrayI18b3SolverConstraintE21expandNonInitializingEv.exit: ; preds = %entry, %if.then.i
  %2 = phi i32 [ %.pre.i, %if.then.i ], [ %0, %entry ]
  %inc.i = add nsw i32 %2, 1
  store i32 %inc.i, ptr %m_size.i.i, align 4
  %m_data.i = getelementptr inbounds i8, ptr %this, i64 152
  %3 = load ptr, ptr %m_data.i, align 8
  %idxprom.i = sext i32 %0 to i64
  %arrayidx.i = getelementptr inbounds %struct.b3SolverConstraint, ptr %3, i64 %idxprom.i
  %m_frictionIndex = getelementptr inbounds i8, ptr %arrayidx.i, i64 140
  store i32 %frictionIndex, ptr %m_frictionIndex, align 4
  tail call void @_ZN17b3PgsJacobiSolver30setupRollingFrictionConstraintEP15b3RigidBodyDataP13b3InertiaDataR18b3SolverConstraintRK9b3Vector3iiR14b3ContactPointS8_S8_S1_S1_fff(ptr noundef nonnull align 8 dereferenceable(448) %this, ptr noundef %bodies, ptr noundef %inertias, ptr noundef nonnull align 16 dereferenceable(160) %arrayidx.i, ptr noundef nonnull align 16 dereferenceable(16) %normalAxis, i32 noundef %solverBodyIdA, i32 noundef %solverBodyIdB, ptr noundef nonnull align 16 dereferenceable(128) %cp, ptr nonnull align 16 poison, ptr nonnull align 16 poison, ptr poison, ptr poison, float poison, float noundef %desiredVelocity, float noundef %cfmSlip)
  ret ptr %arrayidx.i
}